target datalayout = "e-m:e-p270:32:32-p271:32:32-p272:64:64-i64:64-i128:128-f80:128-n8:16:32:64-S128"
target triple = "x86_64-pc-linux-gnu"

%struct.reftable_block_source = type { ptr, ptr }
%struct.reftable_block_source_vtable = type { ptr, ptr, ptr, ptr }
%struct.reftable_block = type { ptr, i64, %struct.reftable_block_source }

; Function Attrs: nounwind uwtable
define dso_local i64 @block_source_read_block(ptr noundef %0, ptr noundef %1, i64 noundef %2, i32 noundef %3) #0 {
  %5 = alloca ptr, align 8
  %6 = alloca ptr, align 8
  %7 = alloca i64, align 8
  %8 = alloca i32, align 4
  %9 = alloca i64, align 8
  store ptr %0, ptr %5, align 8, !tbaa !4
  store ptr %1, ptr %6, align 8, !tbaa !15
  store i64 %2, ptr %7, align 8, !tbaa !17
  store i32 %3, ptr %8, align 4, !tbaa !19
  call void @llvm.lifetime.start.p0(i64 8, ptr %9) #9
  %10 = load ptr, ptr %5, align 8, !tbaa !4
  %11 = getelementptr inbounds nuw %struct.reftable_block_source, ptr %10, i32 0, i32 0
  %12 = load ptr, ptr %11, align 8, !tbaa !9
  %13 = getelementptr inbounds nuw %struct.reftable_block_source_vtable, ptr %12, i32 0, i32 1
  %14 = load ptr, ptr %13, align 8, !tbaa !21
  %15 = load ptr, ptr %5, align 8, !tbaa !4
  %16 = getelementptr inbounds nuw %struct.reftable_block_source, ptr %15, i32 0, i32 1
  %17 = load ptr, ptr %16, align 8, !tbaa !14
  %18 = load ptr, ptr %6, align 8, !tbaa !15
  %19 = load i64, ptr %7, align 8, !tbaa !17
  %20 = load i32, ptr %8, align 4, !tbaa !19
  %21 = call i64 %14(ptr noundef %17, ptr noundef %18, i64 noundef %19, i32 noundef %20)
  store i64 %21, ptr %9, align 8, !tbaa !17
  %22 = load ptr, ptr %6, align 8, !tbaa !15
  %23 = getelementptr inbounds nuw %struct.reftable_block, ptr %22, i32 0, i32 2
  %24 = load ptr, ptr %5, align 8, !tbaa !4
  call void @llvm.memcpy.p0.p0.i64(ptr align 8 %23, ptr align 8 %24, i64 16, i1 false), !tbaa.struct !22
  %25 = load i64, ptr %9, align 8, !tbaa !17
  call void @llvm.lifetime.end.p0(i64 8, ptr %9) #9
  ret i64 %25
}