; Function Attrs: nounwind uwtable
define dso_local i64 @block_source_read_block(ptr noundef readonly captures(none) %0, ptr noundef %1, i64 noundef %2, i32 noundef %3) local_unnamed_addr #0 {
  %5 = load ptr, ptr %0, align 8, !tbaa !4
  %6 = getelementptr inbounds nuw i8, ptr %5, i64 8
  %7 = load ptr, ptr %6, align 8, !tbaa !13
  %8 = getelementptr inbounds nuw i8, ptr %0, i64 8
  %9 = load ptr, ptr %8, align 8, !tbaa !12
  %10 = tail call i64 %7(ptr noundef %9, ptr noundef %1, i64 noundef %2, i32 noundef %3) #12
  %11 = getelementptr inbounds nuw i8, ptr %1, i64 16
  tail call void @llvm.memcpy.p0.p0.i64(ptr noundef nonnull align 8 dereferenceable(16) %11, ptr noundef nonnull align 8 dereferenceable(16) %0, i64 16, i1 false), !tbaa.struct !14
  ret i64 %10
}